target datalayout = "e-m:e-p270:32:32-p271:32:32-p272:64:64-i64:64-i128:128-f80:128-n8:16:32:64-S128"
target triple = "x86_64-pc-linux-gnu"

%"class.pxrInternal_v0_24__pxrReserved__::SdfPath" = type { %"struct.pxrInternal_v0_24__pxrReserved__::Sdf_PathNodeHandleImpl", %"struct.pxrInternal_v0_24__pxrReserved__::Sdf_PathNodeHandleImpl.33" }
%"struct.pxrInternal_v0_24__pxrReserved__::Sdf_PathNodeHandleImpl" = type { %"struct.pxrInternal_v0_24__pxrReserved__::Sdf_Pool<pxrInternal_v0_24__pxrReserved__::Sdf_PathPrimTag, 24, 8>::Handle" }
%"struct.pxrInternal_v0_24__pxrReserved__::Sdf_Pool<pxrInternal_v0_24__pxrReserved__::Sdf_PathPrimTag, 24, 8>::Handle" = type { i32 }
%"struct.pxrInternal_v0_24__pxrReserved__::Sdf_PathNodeHandleImpl.33" = type { %"struct.pxrInternal_v0_24__pxrReserved__::Sdf_Pool<pxrInternal_v0_24__pxrReserved__::Sdf_PathPropTag, 24, 8>::Handle" }
%"struct.pxrInternal_v0_24__pxrReserved__::Sdf_Pool<pxrInternal_v0_24__pxrReserved__::Sdf_PathPropTag, 24, 8>::Handle" = type { i32 }
%"class.pxrInternal_v0_24__pxrReserved__::SdfPathExpression" = type { %"class.std::vector.10", %"class.std::vector.15", %"class.std::vector.20", %"class.std::__cxx11::basic_string" }
%"class.std::vector.10" = type { %"struct.std::_Vector_base.11" }
%"struct.std::_Vector_base.11" = type { %"struct.std::_Vector_base<pxrInternal_v0_24__pxrReserved__::SdfPathExpression::Op, std::allocator<pxrInternal_v0_24__pxrReserved__::SdfPathExpression::Op>>::_Vector_impl" }
%"struct.std::_Vector_base<pxrInternal_v0_24__pxrReserved__::SdfPathExpression::Op, std::allocator<pxrInternal_v0_24__pxrReserved__::SdfPathExpression::Op>>::_Vector_impl" = type { %"struct.std::_Vector_base<pxrInternal_v0_24__pxrReserved__::SdfPathExpression::Op, std::allocator<pxrInternal_v0_24__pxrReserved__::SdfPathExpression::Op>>::_Vector_impl_data" }
%"struct.std::_Vector_base<pxrInternal_v0_24__pxrReserved__::SdfPathExpression::Op, std::allocator<pxrInternal_v0_24__pxrReserved__::SdfPathExpression::Op>>::_Vector_impl_data" = type { ptr, ptr, ptr }
%"class.std::vector.15" = type { %"struct.std::_Vector_base.16" }
%"struct.std::_Vector_base.16" = type { %"struct.std::_Vector_base<pxrInternal_v0_24__pxrReserved__::SdfPathExpression::ExpressionReference, std::allocator<pxrInternal_v0_24__pxrReserved__::SdfPathExpression::ExpressionReference>>::_Vector_impl" }
%"struct.std::_Vector_base<pxrInternal_v0_24__pxrReserved__::SdfPathExpression::ExpressionReference, std::allocator<pxrInternal_v0_24__pxrReserved__::SdfPathExpression::ExpressionReference>>::_Vector_impl" = type { %"struct.std::_Vector_base<pxrInternal_v0_24__pxrReserved__::SdfPathExpression::ExpressionReference, std::allocator<pxrInternal_v0_24__pxrReserved__::SdfPathExpression::ExpressionReference>>::_Vector_impl_data" }
%"struct.std::_Vector_base<pxrInternal_v0_24__pxrReserved__::SdfPathExpression::ExpressionReference, std::allocator<pxrInternal_v0_24__pxrReserved__::SdfPathExpression::ExpressionReference>>::_Vector_impl_data" = type { ptr, ptr, ptr }
%"class.std::vector.20" = type { %"struct.std::_Vector_base.21" }
%"struct.std::_Vector_base.21" = type { %"struct.std::_Vector_base<pxrInternal_v0_24__pxrReserved__::SdfPathPattern, std::allocator<pxrInternal_v0_24__pxrReserved__::SdfPathPattern>>::_Vector_impl" }
%"struct.std::_Vector_base<pxrInternal_v0_24__pxrReserved__::SdfPathPattern, std::allocator<pxrInternal_v0_24__pxrReserved__::SdfPathPattern>>::_Vector_impl" = type { %"struct.std::_Vector_base<pxrInternal_v0_24__pxrReserved__::SdfPathPattern, std::allocator<pxrInternal_v0_24__pxrReserved__::SdfPathPattern>>::_Vector_impl_data" }
%"struct.std::_Vector_base<pxrInternal_v0_24__pxrReserved__::SdfPathPattern, std::allocator<pxrInternal_v0_24__pxrReserved__::SdfPathPattern>>::_Vector_impl_data" = type { ptr, ptr, ptr }
%"class.std::__cxx11::basic_string" = type { %"struct.std::__cxx11::basic_string<char>::_Alloc_hider", i64, %union.anon }
%"struct.std::__cxx11::basic_string<char>::_Alloc_hider" = type { ptr }
%union.anon = type { i64, [8 x i8] }
%"class.pxrInternal_v0_24__pxrReserved__::SdfPathPattern" = type <{ %"class.pxrInternal_v0_24__pxrReserved__::SdfPath", %"class.std::vector.276", %"class.std::vector.281", i8, [7 x i8] }>
%"class.std::vector.276" = type { %"struct.std::_Vector_base.277" }
%"struct.std::_Vector_base.277" = type { %"struct.std::_Vector_base<pxrInternal_v0_24__pxrReserved__::SdfPathPattern::Component, std::allocator<pxrInternal_v0_24__pxrReserved__::SdfPathPattern::Component>>::_Vector_impl" }
%"struct.std::_Vector_base<pxrInternal_v0_24__pxrReserved__::SdfPathPattern::Component, std::allocator<pxrInternal_v0_24__pxrReserved__::SdfPathPattern::Component>>::_Vector_impl" = type { %"struct.std::_Vector_base<pxrInternal_v0_24__pxrReserved__::SdfPathPattern::Component, std::allocator<pxrInternal_v0_24__pxrReserved__::SdfPathPattern::Component>>::_Vector_impl_data" }
%"struct.std::_Vector_base<pxrInternal_v0_24__pxrReserved__::SdfPathPattern::Component, std::allocator<pxrInternal_v0_24__pxrReserved__::SdfPathPattern::Component>>::_Vector_impl_data" = type { ptr, ptr, ptr }
%"class.std::vector.281" = type { %"struct.std::_Vector_base.282" }
%"struct.std::_Vector_base.282" = type { %"struct.std::_Vector_base<pxrInternal_v0_24__pxrReserved__::SdfPredicateExpression, std::allocator<pxrInternal_v0_24__pxrReserved__::SdfPredicateExpression>>::_Vector_impl" }
%"struct.std::_Vector_base<pxrInternal_v0_24__pxrReserved__::SdfPredicateExpression, std::allocator<pxrInternal_v0_24__pxrReserved__::SdfPredicateExpression>>::_Vector_impl" = type { %"struct.std::_Vector_base<pxrInternal_v0_24__pxrReserved__::SdfPredicateExpression, std::allocator<pxrInternal_v0_24__pxrReserved__::SdfPredicateExpression>>::_Vector_impl_data" }
%"struct.std::_Vector_base<pxrInternal_v0_24__pxrReserved__::SdfPredicateExpression, std::allocator<pxrInternal_v0_24__pxrReserved__::SdfPredicateExpression>>::_Vector_impl_data" = type { ptr, ptr, ptr }

; Function Attrs: mustprogress uwtable
define linkonce_odr void @_ZN32pxrInternal_v0_24__pxrReserved__17SdfPathExpression8MakeAtomERKNS_7SdfPathE(ptr dead_on_unwind noalias writable sret(%"class.pxrInternal_v0_24__pxrReserved__::SdfPathExpression") align 8 %0, ptr noundef nonnull align 4 dereferenceable(8) %1) #1 comdat align 2 personality ptr @__gxx_personality_v0 {
  %3 = alloca ptr, align 8
  %4 = alloca ptr, align 8
  %5 = alloca %"class.pxrInternal_v0_24__pxrReserved__::SdfPathPattern", align 8
  %6 = alloca ptr, align 8
  %7 = alloca i32, align 4
  store ptr %0, ptr %3, align 8
  store ptr %1, ptr %4, align 8
  %8 = load ptr, ptr %4, align 8
  call void @_ZN32pxrInternal_v0_24__pxrReserved__14SdfPathPatternC1ERKNS_7SdfPathE(ptr noundef nonnull align 8 dereferenceable(57) %5, ptr noundef nonnull align 4 dereferenceable(8) %8)
  invoke void @_ZN32pxrInternal_v0_24__pxrReserved__17SdfPathExpression8MakeAtomEONS_14SdfPathPatternE(ptr dead_on_unwind writable sret(%"class.pxrInternal_v0_24__pxrReserved__::SdfPathExpression") align 8 %0, ptr noundef nonnull align 8 dereferenceable(57) %5)
          to label %9 unwind label %10

9:                                                ; preds = %2
  call void @_ZN32pxrInternal_v0_24__pxrReserved__14SdfPathPatternD2Ev(ptr noundef nonnull align 8 dereferenceable(57) %5) #13
  ret void

10:                                               ; preds = %2
  %11 = landingpad { ptr, i32 }
          cleanup
  %12 = extractvalue { ptr, i32 } %11, 0
  store ptr %12, ptr %6, align 8
  %13 = extractvalue { ptr, i32 } %11, 1
  store i32 %13, ptr %7, align 4
  call void @_ZN32pxrInternal_v0_24__pxrReserved__14SdfPathPatternD2Ev(ptr noundef nonnull align 8 dereferenceable(57) %5) #13
  br label %14

14:                                               ; preds = %10
  %15 = load ptr, ptr %6, align 8
  %16 = load i32, ptr %7, align 4
  %17 = insertvalue { ptr, i32 } poison, ptr %15, 0
  %18 = insertvalue { ptr, i32 } %17, i32 %16, 1
  resume { ptr, i32 } %18
}

; Function Attrs: mustprogress uwtable
define internal void @"_ZZN32pxrInternal_v0_24__pxrReserved__60UsdComputePathExpressionFromCollectionMembershipQueryRuleMapERKSt13unordered_mapINS_7SdfPathENS_7TfTokenENS1_4HashESt8equal_toIS1_ESaISt4pairIKS1_S2_EEEENK3$_1clERNS_17SdfPathExpressionERS7_"(ptr noundef nonnull align 1 dereferenceable(1) %0, ptr noundef nonnull align 8 dereferenceable(104) %1, ptr noundef nonnull align 4 dereferenceable(8) %2) #1 align 2 personality ptr @__gxx_personality_v0 {
  %4 = alloca ptr, align 8
  %5 = alloca ptr, align 8
  %6 = alloca ptr, align 8
  %7 = alloca %"class.pxrInternal_v0_24__pxrReserved__::SdfPathExpression", align 8
  %8 = alloca %"class.pxrInternal_v0_24__pxrReserved__::SdfPathExpression", align 8
  %9 = alloca ptr, align 8
  %10 = alloca i32, align 4
  store ptr %0, ptr %4, align 8
  store ptr %1, ptr %5, align 8
  store ptr %2, ptr %6, align 8
  %11 = load ptr, ptr %5, align 8
  %12 = load ptr, ptr %6, align 8
  call void @_ZN32pxrInternal_v0_24__pxrReserved__17SdfPathExpression8MakeAtomERKNS_7SdfPathE(ptr dead_on_unwind writable sret(%"class.pxrInternal_v0_24__pxrReserved__::SdfPathExpression") align 8 %8, ptr noundef nonnull align 4 dereferenceable(8) %12)
  invoke void @_ZN32pxrInternal_v0_24__pxrReserved__17SdfPathExpression6MakeOpENS0_2OpEOS0_S2_(ptr dead_on_unwind writable sret(%"class.pxrInternal_v0_24__pxrReserved__::SdfPathExpression") align 8 %7, i32 noundef 1, ptr noundef nonnull align 8 dereferenceable(104) %11, ptr noundef nonnull align 8 dereferenceable(104) %8)
          to label %13 unwind label %16

13:                                               ; preds = %3
  %14 = load ptr, ptr %5, align 8
  %15 = call noundef nonnull align 8 dereferenceable(104) ptr @_ZN32pxrInternal_v0_24__pxrReserved__17SdfPathExpressionaSEOS0_(ptr noundef nonnull align 8 dereferenceable(104) %14, ptr noundef nonnull align 8 dereferenceable(104) %7) #13
  call void @_ZN32pxrInternal_v0_24__pxrReserved__17SdfPathExpressionD2Ev(ptr noundef nonnull align 8 dereferenceable(104) %7) #13
  call void @_ZN32pxrInternal_v0_24__pxrReserved__17SdfPathExpressionD2Ev(ptr noundef nonnull align 8 dereferenceable(104) %8) #13
  ret void

16:                                               ; preds = %3
  %17 = landingpad { ptr, i32 }
          cleanup
  %18 = extractvalue { ptr, i32 } %17, 0
  store ptr %18, ptr %9, align 8
  %19 = extractvalue { ptr, i32 } %17, 1
  store i32 %19, ptr %10, align 4
  call void @_ZN32pxrInternal_v0_24__pxrReserved__17SdfPathExpressionD2Ev(ptr noundef nonnull align 8 dereferenceable(104) %8) #13
  br label %20

20:                                               ; preds = %16
  %21 = load ptr, ptr %9, align 8
  %22 = load i32, ptr %10, align 4
  %23 = insertvalue { ptr, i32 } poison, ptr %21, 0
  %24 = insertvalue { ptr, i32 } %23, i32 %22, 1
  resume { ptr, i32 } %24
}