; Function Attrs: mustprogress uwtable
define internal fastcc void @"_ZZN32pxrInternal_v0_24__pxrReserved__60UsdComputePathExpressionFromCollectionMembershipQueryRuleMapERKSt13unordered_mapINS_7SdfPathENS_7TfTokenENS1_4HashESt8equal_toIS1_ESaISt4pairIKS1_S2_EEEENK3$_1clERNS_17SdfPathExpressionERS7_"(ptr noundef nonnull align 8 dereferenceable(104) %0, ptr noundef nonnull align 4 dereferenceable(8) %1) unnamed_addr #1 align 2 personality ptr @__gxx_personality_v0 {
  %3 = alloca %"class.pxrInternal_v0_24__pxrReserved__::SdfPathPattern", align 8
  %4 = alloca %"class.pxrInternal_v0_24__pxrReserved__::SdfPathExpression", align 8
  %5 = alloca %"class.pxrInternal_v0_24__pxrReserved__::SdfPathExpression", align 8
  call void @llvm.lifetime.start.p0(i64 64, ptr nonnull %3)
  call void @_ZN32pxrInternal_v0_24__pxrReserved__14SdfPathPatternC1ERKNS_7SdfPathE(ptr noundef nonnull align 8 dereferenceable(57) %3, ptr noundef nonnull align 4 dereferenceable(8) %1), !noalias !114
  invoke void @_ZN32pxrInternal_v0_24__pxrReserved__17SdfPathExpression8MakeAtomEONS_14SdfPathPatternE(ptr dead_on_unwind nonnull writable sret(%"class.pxrInternal_v0_24__pxrReserved__::SdfPathExpression") align 8 %5, ptr noundef nonnull align 8 dereferenceable(57) %3)
          to label %_ZN32pxrInternal_v0_24__pxrReserved__17SdfPathExpression8MakeAtomERKNS_7SdfPathE.exit unwind label %6

common.resume:                                    ; preds = %10, %6
  %common.resume.op = phi { ptr, i32 } [ %7, %6 ], [ %11, %10 ]
  resume { ptr, i32 } %common.resume.op

6:                                                ; preds = %2
  %7 = landingpad { ptr, i32 }
          cleanup
  call void @_ZN32pxrInternal_v0_24__pxrReserved__14SdfPathPatternD2Ev(ptr noundef nonnull align 8 dereferenceable(57) %3) #23
  br label %common.resume

_ZN32pxrInternal_v0_24__pxrReserved__17SdfPathExpression8MakeAtomERKNS_7SdfPathE.exit: ; preds = %2
  call void @_ZN32pxrInternal_v0_24__pxrReserved__14SdfPathPatternD2Ev(ptr noundef nonnull align 8 dereferenceable(57) %3) #23
  call void @llvm.lifetime.end.p0(i64 64, ptr nonnull %3)
  invoke void @_ZN32pxrInternal_v0_24__pxrReserved__17SdfPathExpression6MakeOpENS0_2OpEOS0_S2_(ptr dead_on_unwind nonnull writable sret(%"class.pxrInternal_v0_24__pxrReserved__::SdfPathExpression") align 8 %4, i32 noundef 1, ptr noundef nonnull align 8 dereferenceable(104) %0, ptr noundef nonnull align 8 dereferenceable(104) %5)
          to label %8 unwind label %10

8:                                                ; preds = %_ZN32pxrInternal_v0_24__pxrReserved__17SdfPathExpression8MakeAtomERKNS_7SdfPathE.exit
  %9 = call noundef nonnull align 8 dereferenceable(104) ptr @_ZN32pxrInternal_v0_24__pxrReserved__17SdfPathExpressionaSEOS0_(ptr noundef nonnull align 8 dereferenceable(104) %0, ptr noundef nonnull align 8 dereferenceable(104) %4) #23
  call void @_ZN32pxrInternal_v0_24__pxrReserved__17SdfPathExpressionD2Ev(ptr noundef nonnull align 8 dereferenceable(104) %4) #23
  call void @_ZN32pxrInternal_v0_24__pxrReserved__17SdfPathExpressionD2Ev(ptr noundef nonnull align 8 dereferenceable(104) %5) #23
  ret void

10:                                               ; preds = %_ZN32pxrInternal_v0_24__pxrReserved__17SdfPathExpression8MakeAtomERKNS_7SdfPathE.exit
  %11 = landingpad { ptr, i32 }
          cleanup
  call void @_ZN32pxrInternal_v0_24__pxrReserved__17SdfPathExpressionD2Ev(ptr noundef nonnull align 8 dereferenceable(104) %5) #23
  br label %common.resume
}